target datalayout = "e-m:e-p270:32:32-p271:32:32-p272:64:64-i64:64-i128:128-f80:128-n8:16:32:64-S128"
target triple = "x86_64-pc-linux-gnu"

%struct.boxf = type { %struct.pointf_s, %struct.pointf_s }
%struct.pointf_s = type { double, double }
%struct.cell = type { i32, i32, [6 x ptr], i32, ptr, %struct.boxf }
%struct.maze = type { i32, i32, ptr, ptr, ptr, ptr, ptr }

; Function Attrs: nounwind uwtable
define void @freeMaze(ptr noundef %0) #0 {
  %2 = alloca ptr, align 8
  store ptr %0, ptr %2, align 8, !tbaa !3
  %3 = load ptr, ptr %2, align 8, !tbaa !3
  %4 = getelementptr inbounds nuw %struct.maze, ptr %3, i32 0, i32 2
  %5 = load ptr, ptr %4, align 8, !tbaa !78
  %6 = getelementptr inbounds %struct.cell, ptr %5, i64 0
  %7 = getelementptr inbounds nuw %struct.cell, ptr %6, i32 0, i32 4
  %8 = load ptr, ptr %7, align 8, !tbaa !90
  call void @free(ptr noundef %8) #10
  %9 = load ptr, ptr %2, align 8, !tbaa !3
  %10 = getelementptr inbounds nuw %struct.maze, ptr %9, i32 0, i32 3
  %11 = load ptr, ptr %10, align 8, !tbaa !47
  %12 = getelementptr inbounds %struct.cell, ptr %11, i64 0
  %13 = getelementptr inbounds nuw %struct.cell, ptr %12, i32 0, i32 4
  %14 = load ptr, ptr %13, align 8, !tbaa !90
  call void @free(ptr noundef %14) #10
  %15 = load ptr, ptr %2, align 8, !tbaa !3
  %16 = getelementptr inbounds nuw %struct.maze, ptr %15, i32 0, i32 2
  %17 = load ptr, ptr %16, align 8, !tbaa !78
  call void @free(ptr noundef %17) #10
  %18 = load ptr, ptr %2, align 8, !tbaa !3
  %19 = getelementptr inbounds nuw %struct.maze, ptr %18, i32 0, i32 3
  %20 = load ptr, ptr %19, align 8, !tbaa !47
  call void @free(ptr noundef %20) #10
  %21 = load ptr, ptr %2, align 8, !tbaa !3
  %22 = getelementptr inbounds nuw %struct.maze, ptr %21, i32 0, i32 4
  %23 = load ptr, ptr %22, align 8, !tbaa !81
  call void @freeSGraph(ptr noundef %23)
  %24 = load ptr, ptr %2, align 8, !tbaa !3
  %25 = getelementptr inbounds nuw %struct.maze, ptr %24, i32 0, i32 5
  %26 = load ptr, ptr %25, align 8, !tbaa !115
  %27 = call i32 @dtclose(ptr noundef %26)
  %28 = load ptr, ptr %2, align 8, !tbaa !3
  %29 = getelementptr inbounds nuw %struct.maze, ptr %28, i32 0, i32 6
  %30 = load ptr, ptr %29, align 8, !tbaa !116
  %31 = call i32 @dtclose(ptr noundef %30)
  %32 = load ptr, ptr %2, align 8, !tbaa !3
  call void @free(ptr noundef %32) #10
  ret void
}