; Function Attrs: nounwind uwtable
define void @freeMaze(ptr noundef captures(none) %0) local_unnamed_addr #3 {
  %2 = getelementptr inbounds nuw i8, ptr %0, i64 8
  %3 = load ptr, ptr %2, align 8, !tbaa !75
  %4 = getelementptr inbounds nuw i8, ptr %3, i64 64
  %5 = load ptr, ptr %4, align 8, !tbaa !79
  tail call void @free(ptr noundef %5) #18
  %6 = getelementptr inbounds nuw i8, ptr %0, i64 16
  %7 = load ptr, ptr %6, align 8, !tbaa !43
  %8 = getelementptr inbounds nuw i8, ptr %7, i64 64
  %9 = load ptr, ptr %8, align 8, !tbaa !79
  tail call void @free(ptr noundef %9) #18
  %10 = load ptr, ptr %2, align 8, !tbaa !75
  tail call void @free(ptr noundef %10) #18
  %11 = load ptr, ptr %6, align 8, !tbaa !43
  tail call void @free(ptr noundef %11) #18
  %12 = getelementptr inbounds nuw i8, ptr %0, i64 24
  %13 = load ptr, ptr %12, align 8, !tbaa !112
  tail call void @freeSGraph(ptr noundef %13) #18
  %14 = getelementptr inbounds nuw i8, ptr %0, i64 32
  %15 = load ptr, ptr %14, align 8, !tbaa !118
  %16 = tail call i32 @dtclose(ptr noundef %15) #18
  %17 = getelementptr inbounds nuw i8, ptr %0, i64 40
  %18 = load ptr, ptr %17, align 8, !tbaa !119
  %19 = tail call i32 @dtclose(ptr noundef %18) #18
  tail call void @free(ptr noundef %0) #18
  ret void
}